target datalayout = "e-m:e-p270:32:32-p271:32:32-p272:64:64-i64:64-i128:128-f80:128-n8:16:32:64-S128"
target triple = "x86_64-unknown-linux-gnu"

%"class.net::SendAlgorithmInterface" = type { ptr }
%"class.net::HybridSlowStart" = type { i8, i32, i64, i64, i32, %"class.net::QuicTime::Delta" }
%"class.net::QuicTime::Delta" = type { %"class.base::TimeDelta", i64 }
%"class.base::TimeDelta" = type { i64 }
%"class.net::PrrSender" = type { i64, i64, i64, i64 }
%"class.net::TcpCubicSenderBase" = type <{ %"class.net::SendAlgorithmInterface", %"class.net::HybridSlowStart", %"class.net::PrrSender", ptr, ptr, i8, [3 x i8], i32, i64, i64, i64, i8, i8, i8, i8, i8, [3 x i8] }>

; Function Attrs: mustprogress nounwind uwtable
define dso_local noundef i32 @_ZNK3net21TcpCubicSenderPackets24GetCongestionControlTypeEv(ptr noundef nonnull align 8 dereferenceable(304) %this) unnamed_addr #3 align 2 {
entry:
  %this.addr = alloca ptr, align 8
  store ptr %this, ptr %this.addr, align 8
  %this1 = load ptr, ptr %this.addr, align 8
  %reno_ = getelementptr inbounds %"class.net::TcpCubicSenderBase", ptr %this1, i32 0, i32 5
  %0 = load i8, ptr %reno_, align 8
  %tobool = trunc i8 %0 to i1
  %cond = select i1 %tobool, i32 2, i32 0
  ret i32 %cond
}