; Function Attrs: mustprogress nofree norecurse nosync nounwind willreturn memory(argmem: read) uwtable
define dso_local noundef i32 @_ZNK3net21TcpCubicSenderPackets24GetCongestionControlTypeEv(ptr nocapture noundef nonnull readonly align 8 dereferenceable(304) %this) unnamed_addr #7 align 2 {
entry:
  %reno_ = getelementptr inbounds i8, ptr %this, i64 104
  %0 = load i8, ptr %reno_, align 8
  %1 = shl i8 %0, 1
  %2 = and i8 %1, 2
  %cond = zext nneg i8 %2 to i32
  ret i32 %cond
}